target datalayout = "e-m:e-p270:32:32-p271:32:32-p272:64:64-i64:64-i128:128-f80:128-n8:16:32:64-S128"
target triple = "x86_64-pc-linux-gnu"

%struct.FormData_pg_attribute = type { i32, %struct.nameData, i32, i16, i16, i32, i16, i8, i8, i8, i8, i8, i8, i8, i8, i8, i8, i8, i16, i32 }
%struct.nameData = type { [64 x i8] }
%struct.RelationData = type { %struct.RelFileLocator, ptr, i32, i32, i8, i8, i8, i8, i8, i32, i32, i32, i32, ptr, ptr, i32, %struct.LockInfoData, ptr, ptr, ptr, ptr, ptr, i8, ptr, ptr, ptr, ptr, ptr, ptr, i32, ptr, i8, ptr, ptr, i32, i8, i32, ptr, i8, ptr, ptr, ptr, ptr, ptr, ptr, ptr, i32, ptr, ptr, ptr, ptr, ptr, ptr, ptr, ptr, ptr, ptr, ptr, ptr, ptr, ptr, ptr, ptr, ptr, ptr, ptr, i32, i8, ptr }
%struct.RelFileLocator = type { i32, i32, i32 }
%struct.LockInfoData = type { %struct.LockRelId }
%struct.LockRelId = type { i32, i32 }
%struct.FormData_pg_class = type { i32, %struct.nameData, i32, i32, i32, i32, i32, i32, i32, i32, float, i32, i32, i8, i8, i8, i8, i16, i16, i8, i8, i8, i8, i8, i8, i8, i8, i32, i32, i32 }
%struct.HeapTupleData = type { i32, %struct.ItemPointerData, i32, ptr }
%struct.ItemPointerData = type { %struct.BlockIdData, i16 }
%struct.BlockIdData = type { i16, i16 }
%struct.HeapTupleHeaderData = type { %union.anon, %struct.ItemPointerData, i16, i16, i8, [0 x i8] }
%union.anon = type { %struct.HeapTupleFields }
%struct.HeapTupleFields = type { i32, i32, %union.anon.0 }
%union.anon.0 = type { i32 }

@.str.2 = private unnamed_addr constant [12 x i8] c"tablecmds.c\00", align 1
@.str.147 = private unnamed_addr constant [53 x i8] c"column name \22%s\22 conflicts with a system column name\00", align 1
@__func__.check_for_column_name_collision = private unnamed_addr constant [32 x i8] c"check_for_column_name_collision\00", align 1
@.str.148 = private unnamed_addr constant [54 x i8] c"column \22%s\22 of relation \22%s\22 already exists, skipping\00", align 1
@.str.149 = private unnamed_addr constant [44 x i8] c"column \22%s\22 of relation \22%s\22 already exists\00", align 1

; Function Attrs: inlinehint nounwind uwtable
define internal ptr @GETSTRUCT(ptr noundef %0) #6 {
  %2 = alloca ptr, align 8
  store ptr %0, ptr %2, align 8
  %3 = load ptr, ptr %2, align 8
  %4 = getelementptr inbounds nuw %struct.HeapTupleData, ptr %3, i32 0, i32 3
  %5 = load ptr, ptr %4, align 8
  %6 = load ptr, ptr %2, align 8
  %7 = getelementptr inbounds nuw %struct.HeapTupleData, ptr %6, i32 0, i32 3
  %8 = load ptr, ptr %7, align 8
  %9 = getelementptr inbounds nuw %struct.HeapTupleHeaderData, ptr %8, i32 0, i32 4
  %10 = load i8, ptr %9, align 2
  %11 = zext i8 %10 to i32
  %12 = sext i32 %11 to i64
  %13 = getelementptr inbounds i8, ptr %5, i64 %12
  ret ptr %13
}

; Function Attrs: inlinehint nounwind uwtable
define internal i64 @PointerGetDatum(ptr noundef %0) #6 {
  %2 = alloca ptr, align 8
  store ptr %0, ptr %2, align 8
  %3 = load ptr, ptr %2, align 8
  %4 = ptrtoint ptr %3 to i64
  ret i64 %4
}

; Function Attrs: inlinehint nounwind uwtable
define internal i64 @ObjectIdGetDatum(i32 noundef %0) #6 {
  %2 = alloca i32, align 4
  store i32 %0, ptr %2, align 4
  %3 = load i32, ptr %2, align 4
  %4 = zext i32 %3 to i64
  ret i64 %4
}

; Function Attrs: nounwind uwtable
define internal zeroext i1 @check_for_column_name_collision(ptr noundef %0, ptr noundef %1, i1 noundef zeroext %2) #0 {
  %4 = alloca i1, align 1
  %5 = alloca ptr, align 8
  %6 = alloca ptr, align 8
  %7 = alloca i8, align 1
  %8 = alloca ptr, align 8
  %9 = alloca i32, align 4
  %10 = alloca i32, align 4
  store ptr %0, ptr %5, align 8
  store ptr %1, ptr %6, align 8
  %11 = zext i1 %2 to i8
  store i8 %11, ptr %7, align 1
  call void @llvm.lifetime.start.p0(i64 8, ptr %8) #12
  call void @llvm.lifetime.start.p0(i64 4, ptr %9) #12
  %12 = load ptr, ptr %5, align 8
  %13 = getelementptr inbounds nuw %struct.RelationData, ptr %12, i32 0, i32 15
  %14 = load i32, ptr %13, align 8
  %15 = call i64 @ObjectIdGetDatum(i32 noundef %14)
  %16 = load ptr, ptr %6, align 8
  %17 = call i64 @PointerGetDatum(ptr noundef %16)
  %18 = call ptr @SearchSysCache2(i32 noundef 6, i64 noundef %15, i64 noundef %17)
  store ptr %18, ptr %8, align 8
  %19 = load ptr, ptr %8, align 8
  %20 = icmp ne ptr %19, null
  br i1 %20, label %22, label %21

21:                                               ; preds = %3
  store i1 true, ptr %4, align 1
  store i32 1, ptr %10, align 4
  br label %86

22:                                               ; preds = %3
  %23 = load ptr, ptr %8, align 8
  %24 = call ptr @GETSTRUCT(ptr noundef %23)
  %25 = getelementptr inbounds nuw %struct.FormData_pg_attribute, ptr %24, i32 0, i32 4
  %26 = load i16, ptr %25, align 2
  %27 = sext i16 %26 to i32
  store i32 %27, ptr %9, align 4
  %28 = load ptr, ptr %8, align 8
  call void @ReleaseSysCache(ptr noundef %28)
  %29 = load i32, ptr %9, align 4
  %30 = icmp sle i32 %29, 0
  br i1 %30, label %31, label %44

31:                                               ; preds = %22
  br label %32

32:                                               ; preds = %31
  br i1 true, label %33, label %35

33:                                               ; preds = %32
  %34 = call zeroext i1 @errstart_cold(i32 noundef 21, ptr noundef null) #13
  br i1 %34, label %37, label %41

35:                                               ; preds = %32
  %36 = call zeroext i1 @errstart(i32 noundef 21, ptr noundef null)
  br i1 %36, label %37, label %41

37:                                               ; preds = %35, %33
  %38 = call i32 @errcode(i32 noundef 16806020)
  %39 = load ptr, ptr %6, align 8
  %40 = call i32 (ptr, ...) @errmsg(ptr noundef @.str.147, ptr noundef %39)
  call void @errfinish(ptr noundef @.str.2, i32 noundef 7544, ptr noundef @__func__.check_for_column_name_collision)
  br label %41

41:                                               ; preds = %37, %35, %33
  unreachable

42:                                               ; No predecessors!
  br label %43

43:                                               ; preds = %42
  br label %85

44:                                               ; preds = %22
  %45 = load i8, ptr %7, align 1, !range !6, !noundef !7
  %46 = trunc i8 %45 to i1
  br i1 %46, label %47, label %66

47:                                               ; preds = %44
  br label %48

48:                                               ; preds = %47
  br i1 false, label %49, label %51

49:                                               ; preds = %48
  %50 = call zeroext i1 @errstart_cold(i32 noundef 18, ptr noundef null) #13
  br i1 %50, label %53, label %63

51:                                               ; preds = %48
  %52 = call zeroext i1 @errstart(i32 noundef 18, ptr noundef null)
  br i1 %52, label %53, label %63

53:                                               ; preds = %51, %49
  %54 = call i32 @errcode(i32 noundef 16806020)
  %55 = load ptr, ptr %6, align 8
  %56 = load ptr, ptr %5, align 8
  %57 = getelementptr inbounds nuw %struct.RelationData, ptr %56, i32 0, i32 13
  %58 = load ptr, ptr %57, align 8
  %59 = getelementptr inbounds nuw %struct.FormData_pg_class, ptr %58, i32 0, i32 1
  %60 = getelementptr inbounds nuw %struct.nameData, ptr %59, i32 0, i32 0
  %61 = getelementptr inbounds [64 x i8], ptr %60, i64 0, i64 0
  %62 = call i32 (ptr, ...) @errmsg(ptr noundef @.str.148, ptr noundef %55, ptr noundef %61)
  call void @errfinish(ptr noundef @.str.2, i32 noundef 7552, ptr noundef @__func__.check_for_column_name_collision)
  br label %63

63:                                               ; preds = %53, %51, %49
  br label %64

64:                                               ; preds = %63
  br label %65

65:                                               ; preds = %64
  store i1 false, ptr %4, align 1
  store i32 1, ptr %10, align 4
  br label %86

66:                                               ; preds = %44
  br label %67

67:                                               ; preds = %66
  br i1 true, label %68, label %70

68:                                               ; preds = %67
  %69 = call zeroext i1 @errstart_cold(i32 noundef 21, ptr noundef null) #13
  br i1 %69, label %72, label %82

70:                                               ; preds = %67
  %71 = call zeroext i1 @errstart(i32 noundef 21, ptr noundef null)
  br i1 %71, label %72, label %82

72:                                               ; preds = %70, %68
  %73 = call i32 @errcode(i32 noundef 16806020)
  %74 = load ptr, ptr %6, align 8
  %75 = load ptr, ptr %5, align 8
  %76 = getelementptr inbounds nuw %struct.RelationData, ptr %75, i32 0, i32 13
  %77 = load ptr, ptr %76, align 8
  %78 = getelementptr inbounds nuw %struct.FormData_pg_class, ptr %77, i32 0, i32 1
  %79 = getelementptr inbounds nuw %struct.nameData, ptr %78, i32 0, i32 0
  %80 = getelementptr inbounds [64 x i8], ptr %79, i64 0, i64 0
  %81 = call i32 (ptr, ...) @errmsg(ptr noundef @.str.149, ptr noundef %74, ptr noundef %80)
  call void @errfinish(ptr noundef @.str.2, i32 noundef 7559, ptr noundef @__func__.check_for_column_name_collision)
  br label %82

82:                                               ; preds = %72, %70, %68
  unreachable

83:                                               ; No predecessors!
  br label %84

84:                                               ; preds = %83
  br label %85

85:                                               ; preds = %84, %43
  store i1 true, ptr %4, align 1
  store i32 1, ptr %10, align 4
  br label %86

86:                                               ; preds = %85, %65, %21
  call void @llvm.lifetime.end.p0(i64 4, ptr %9) #12
  call void @llvm.lifetime.end.p0(i64 8, ptr %8) #12
  %87 = load i1, ptr %4, align 1
  ret i1 %87
}