; Function Attrs: nounwind uwtable
define internal fastcc noundef zeroext i1 @check_for_column_name_collision(ptr noundef readonly captures(none) %0, ptr noundef %1, i1 noundef zeroext %2) unnamed_addr #0 {
  %4 = getelementptr inbounds nuw i8, ptr %0, i64 72
  %5 = load i32, ptr %4, align 8
  %6 = zext i32 %5 to i64
  %7 = ptrtoint ptr %1 to i64
  %8 = tail call ptr @SearchSysCache2(i32 noundef 6, i64 noundef %6, i64 noundef %7) #15
  %.not = icmp eq ptr %8, null
  br i1 %.not, label %38, label %9

9:                                                ; preds = %3
  %10 = getelementptr i8, ptr %8, i64 16
  %.val = load ptr, ptr %10, align 8
  %11 = getelementptr inbounds nuw i8, ptr %.val, i64 22
  %12 = load i8, ptr %11, align 2
  %13 = zext i8 %12 to i64
  %14 = getelementptr inbounds nuw i8, ptr %.val, i64 %13
  %15 = getelementptr inbounds nuw i8, ptr %14, i64 74
  %16 = load i16, ptr %15, align 2
  tail call void @ReleaseSysCache(ptr noundef nonnull %8) #15
  %17 = icmp slt i16 %16, 1
  br i1 %17, label %18, label %22

18:                                               ; preds = %9
  %19 = tail call zeroext i1 @errstart_cold(i32 noundef 21, ptr noundef null) #16
  tail call void @llvm.assume(i1 %19)
  %20 = tail call i32 @errcode(i32 noundef 16806020) #15
  %21 = tail call i32 (ptr, ...) @errmsg(ptr noundef nonnull @.str.147, ptr noundef %1) #15
  tail call void @errfinish(ptr noundef nonnull @.str.2, i32 noundef 7544, ptr noundef nonnull @__func__.check_for_column_name_collision) #15
  unreachable

22:                                               ; preds = %9
  br i1 %2, label %23, label %31

23:                                               ; preds = %22
  %24 = tail call zeroext i1 @errstart(i32 noundef 18, ptr noundef null) #15
  br i1 %24, label %25, label %38

25:                                               ; preds = %23
  %26 = tail call i32 @errcode(i32 noundef 16806020) #15
  %27 = getelementptr inbounds nuw i8, ptr %0, i64 56
  %28 = load ptr, ptr %27, align 8
  %29 = getelementptr inbounds nuw i8, ptr %28, i64 4
  %30 = tail call i32 (ptr, ...) @errmsg(ptr noundef nonnull @.str.148, ptr noundef %1, ptr noundef nonnull %29) #15
  tail call void @errfinish(ptr noundef nonnull @.str.2, i32 noundef 7552, ptr noundef nonnull @__func__.check_for_column_name_collision) #15
  br label %38

31:                                               ; preds = %22
  %32 = tail call zeroext i1 @errstart_cold(i32 noundef 21, ptr noundef null) #16
  tail call void @llvm.assume(i1 %32)
  %33 = tail call i32 @errcode(i32 noundef 16806020) #15
  %34 = getelementptr inbounds nuw i8, ptr %0, i64 56
  %35 = load ptr, ptr %34, align 8
  %36 = getelementptr inbounds nuw i8, ptr %35, i64 4
  %37 = tail call i32 (ptr, ...) @errmsg(ptr noundef nonnull @.str.149, ptr noundef %1, ptr noundef nonnull %36) #15
  tail call void @errfinish(ptr noundef nonnull @.str.2, i32 noundef 7559, ptr noundef nonnull @__func__.check_for_column_name_collision) #15
  unreachable

38:                                               ; preds = %23, %25, %3
  ret i1 %.not
}